target datalayout = "e-m:e-p270:32:32-p271:32:32-p272:64:64-i64:64-i128:128-f80:128-n8:16:32:64-S128"
target triple = "x86_64-unknown-linux-gnu"

%struct.btBroadphasePair = type { ptr, ptr, ptr, %union.anon.4 }
%union.anon.4 = type { ptr }
%struct.btOverlapCallback = type { ptr }
%class.RemovePairCallback = type { %struct.btOverlapCallback, ptr }

; Function Attrs: mustprogress nounwind uwtable
define internal noundef zeroext i1 @_ZZN28btHashedOverlappingPairCache37removeOverlappingPairsContainingProxyEP17btBroadphaseProxyP12btDispatcherEN18RemovePairCallback14processOverlapER16btBroadphasePair(ptr noundef nonnull align 8 dereferenceable(16) %this, ptr noundef nonnull align 8 dereferenceable(32) %pair) unnamed_addr #1 align 2 {
entry:
  %this.addr = alloca ptr, align 8
  %pair.addr = alloca ptr, align 8
  store ptr %this, ptr %this.addr, align 8
  store ptr %pair, ptr %pair.addr, align 8
  %this1 = load ptr, ptr %this.addr, align 8
  %0 = load ptr, ptr %pair.addr, align 8
  %m_pProxy0 = getelementptr inbounds %struct.btBroadphasePair, ptr %0, i32 0, i32 0
  %1 = load ptr, ptr %m_pProxy0, align 8
  %m_obsoleteProxy = getelementptr inbounds %class.RemovePairCallback, ptr %this1, i32 0, i32 1
  %2 = load ptr, ptr %m_obsoleteProxy, align 8
  %cmp = icmp eq ptr %1, %2
  br i1 %cmp, label %lor.end, label %lor.rhs

lor.rhs:                                          ; preds = %entry
  %3 = load ptr, ptr %pair.addr, align 8
  %m_pProxy1 = getelementptr inbounds %struct.btBroadphasePair, ptr %3, i32 0, i32 1
  %4 = load ptr, ptr %m_pProxy1, align 8
  %m_obsoleteProxy2 = getelementptr inbounds %class.RemovePairCallback, ptr %this1, i32 0, i32 1
  %5 = load ptr, ptr %m_obsoleteProxy2, align 8
  %cmp3 = icmp eq ptr %4, %5
  br label %lor.end

lor.end:                                          ; preds = %lor.rhs, %entry
  %6 = phi i1 [ true, %entry ], [ %cmp3, %lor.rhs ]
  ret i1 %6
}